; ModuleID = '9/1663.c'
source_filename = "9/1663.c"
target datalayout = "e-m:e-p270:32:32-p271:32:32-p272:64:64-i64:64-f80:128-n8:16:32:64-S128"
target triple = "x86_64-pc-linux-gnu"

%struct.bing = type { [10 x i8], i32, i32 }

@.str = private unnamed_addr constant [3 x i8] c"%d\00", align 1
@.str.1 = private unnamed_addr constant [6 x i8] c"%s %d\00", align 1
@bing = common dso_local global [100 x %struct.bing] zeroinitializer, align 16
@temp = common dso_local global %struct.bing zeroinitializer, align 4
@.str.2 = private unnamed_addr constant [4 x i8] c"%s\0A\00", align 1

; Function Attrs: noinline nounwind uwtable
define dso_local i32 @main() #0 {
  %1 = alloca i32, align 4
  %2 = alloca i32, align 4
  %3 = alloca i32, align 4
  %4 = alloca i32, align 4
  store i32 0, i32* %1, align 4
  %5 = call i32 (i8*, ...) @__isoc99_scanf(i8* getelementptr inbounds ([3 x i8], [3 x i8]* @.str, i64 0, i64 0), i32* %4)
  store i32 0, i32* %2, align 4
  br label %6

6:                                                ; preds = %26, %0
  %7 = load i32, i32* %2, align 4
  %8 = load i32, i32* %4, align 4
  %9 = icmp slt i32 %7, %8
  br i1 %9, label %10, label %29

10:                                               ; preds = %6
  %11 = load i32, i32* %2, align 4
  %12 = sext i32 %11 to i64
  %13 = getelementptr inbounds [100 x %struct.bing], [100 x %struct.bing]* @bing, i64 0, i64 %12
  %14 = getelementptr inbounds %struct.bing, %struct.bing* %13, i32 0, i32 0
  %15 = load i32, i32* %2, align 4
  %16 = sext i32 %15 to i64
  %17 = getelementptr inbounds [100 x %struct.bing], [100 x %struct.bing]* @bing, i64 0, i64 %16
  %18 = getelementptr inbounds %struct.bing, %struct.bing* %17, i32 0, i32 1
  %19 = call i32 (i8*, ...) @__isoc99_scanf(i8* getelementptr inbounds ([6 x i8], [6 x i8]* @.str.1, i64 0, i64 0), [10 x i8]* %14, i32* %18)
  %20 = load i32, i32* %2, align 4
  %21 = add nsw i32 %20, 1
  %22 = load i32, i32* %2, align 4
  %23 = sext i32 %22 to i64
  %24 = getelementptr inbounds [100 x %struct.bing], [100 x %struct.bing]* @bing, i64 0, i64 %23
  %25 = getelementptr inbounds %struct.bing, %struct.bing* %24, i32 0, i32 2
  store i32 %21, i32* %25, align 4
  br label %26

26:                                               ; preds = %10
  %27 = load i32, i32* %2, align 4
  %28 = add nsw i32 %27, 1
  store i32 %28, i32* %2, align 4
  br label %6

29:                                               ; preds = %6
  store i32 0, i32* %3, align 4
  br label %30

30:                                               ; preds = %85, %29
  %31 = load i32, i32* %3, align 4
  %32 = load i32, i32* %4, align 4
  %33 = icmp sle i32 %31, %32
  br i1 %33, label %34, label %88

34:                                               ; preds = %30
  store i32 0, i32* %2, align 4
  br label %35

35:                                               ; preds = %81, %34
  %36 = load i32, i32* %2, align 4
  %37 = load i32, i32* %4, align 4
  %38 = sub nsw i32 %37, 1
  %39 = icmp slt i32 %36, %38
  br i1 %39, label %40, label %84

40:                                               ; preds = %35
  %41 = load i32, i32* %2, align 4
  %42 = add nsw i32 %41, 1
  %43 = sext i32 %42 to i64
  %44 = getelementptr inbounds [100 x %struct.bing], [100 x %struct.bing]* @bing, i64 0, i64 %43
  %45 = getelementptr inbounds %struct.bing, %struct.bing* %44, i32 0, i32 1
  %46 = load i32, i32* %45, align 4
  %47 = icmp sge i32 %46, 60
  br i1 %47, label %48, label %80

48:                                               ; preds = %40
  %49 = load i32, i32* %2, align 4
  %50 = sext i32 %49 to i64
  %51 = getelementptr inbounds [100 x %struct.bing], [100 x %struct.bing]* @bing, i64 0, i64 %50
  %52 = getelementptr inbounds %struct.bing, %struct.bing* %51, i32 0, i32 1
  %53 = load i32, i32* %52, align 4
  %54 = load i32, i32* %2, align 4
  %55 = add nsw i32 %54, 1
  %56 = sext i32 %55 to i64
  %57 = getelementptr inbounds [100 x %struct.bing], [100 x %struct.bing]* @bing, i64 0, i64 %56
  %58 = getelementptr inbounds %struct.bing, %struct.bing* %57, i32 0, i32 1
  %59 = load i32, i32* %58, align 4
  %60 = icmp slt i32 %53, %59
  br i1 %60, label %61, label %80

61:                                               ; preds = %48
  %62 = load i32, i32* %2, align 4
  %63 = add nsw i32 %62, 1
  %64 = sext i32 %63 to i64
  %65 = getelementptr inbounds [100 x %struct.bing], [100 x %struct.bing]* @bing, i64 0, i64 %64
  %66 = bitcast %struct.bing* %65 to i8*
  call void @llvm.memcpy.p0i8.p0i8.i64(i8* align 4 getelementptr inbounds (%struct.bing, %struct.bing* @temp, i32 0, i32 0, i32 0), i8* align 4 %66, i64 20, i1 false)
  %67 = load i32, i32* %2, align 4
  %68 = add nsw i32 %67, 1
  %69 = sext i32 %68 to i64
  %70 = getelementptr inbounds [100 x %struct.bing], [100 x %struct.bing]* @bing, i64 0, i64 %69
  %71 = load i32, i32* %2, align 4
  %72 = sext i32 %71 to i64
  %73 = getelementptr inbounds [100 x %struct.bing], [100 x %struct.bing]* @bing, i64 0, i64 %72
  %74 = bitcast %struct.bing* %70 to i8*
  %75 = bitcast %struct.bing* %73 to i8*
  call void @llvm.memcpy.p0i8.p0i8.i64(i8* align 4 %74, i8* align 4 %75, i64 20, i1 false)
  %76 = load i32, i32* %2, align 4
  %77 = sext i32 %76 to i64
  %78 = getelementptr inbounds [100 x %struct.bing], [100 x %struct.bing]* @bing, i64 0, i64 %77
  %79 = bitcast %struct.bing* %78 to i8*
  call void @llvm.memcpy.p0i8.p0i8.i64(i8* align 4 %79, i8* align 4 getelementptr inbounds (%struct.bing, %struct.bing* @temp, i32 0, i32 0, i32 0), i64 20, i1 false)
  br label %80

80:                                               ; preds = %61, %48, %40
  br label %81

81:                                               ; preds = %80
  %82 = load i32, i32* %2, align 4
  %83 = add nsw i32 %82, 1
  store i32 %83, i32* %2, align 4
  br label %35

84:                                               ; preds = %35
  br label %85

85:                                               ; preds = %84
  %86 = load i32, i32* %3, align 4
  %87 = add nsw i32 %86, 1
  store i32 %87, i32* %3, align 4
  br label %30

88:                                               ; preds = %30
  store i32 0, i32* %2, align 4
  br label %89

89:                                               ; preds = %100, %88
  %90 = load i32, i32* %2, align 4
  %91 = load i32, i32* %4, align 4
  %92 = icmp slt i32 %90, %91
  br i1 %92, label %93, label %103

93:                                               ; preds = %89
  %94 = load i32, i32* %2, align 4
  %95 = sext i32 %94 to i64
  %96 = getelementptr inbounds [100 x %struct.bing], [100 x %struct.bing]* @bing, i64 0, i64 %95
  %97 = getelementptr inbounds %struct.bing, %struct.bing* %96, i32 0, i32 0
  %98 = getelementptr inbounds [10 x i8], [10 x i8]* %97, i64 0, i64 0
  %99 = call i32 (i8*, ...) @printf(i8* getelementptr inbounds ([4 x i8], [4 x i8]* @.str.2, i64 0, i64 0), i8* %98)
  br label %100

100:                                              ; preds = %93
  %101 = load i32, i32* %2, align 4
  %102 = add nsw i32 %101, 1
  store i32 %102, i32* %2, align 4
  br label %89

103:                                              ; preds = %89
  ret i32 0
}

declare dso_local i32 @__isoc99_scanf(i8*, ...) #1

; Function Attrs: argmemonly nounwind willreturn
declare void @llvm.memcpy.p0i8.p0i8.i64(i8* noalias nocapture writeonly, i8* noalias nocapture readonly, i64, i1 immarg) #2

declare dso_local i32 @printf(i8*, ...) #1


!llvm.module.flags = !{!0}
!llvm.ident = !{!1}

!0 = !{i32 1, !"wchar_size", i32 4}
!1 = !{!"clang version 10.0.0-4ubuntu1 "}
